; Function Attrs: mustprogress nofree norecurse nosync nounwind willreturn memory(read, inaccessiblemem: none) uwtable
define dso_local noundef range(i32 2, 1025) i32 @_ZNK4llvm10X86TTIImpl17getGatherOverheadEv(ptr noundef nonnull readonly align 8 captures(none) dereferenceable(72) %0) local_unnamed_addr #0 align 2 {
  %2 = getelementptr inbounds nuw i8, ptr %0, i64 16
  %3 = load ptr, ptr %2, align 8
  %4 = getelementptr inbounds nuw i8, ptr %3, i64 304
  %5 = load i32, ptr %4, align 8
  %6 = icmp sgt i32 %5, 8
  br i1 %6, label %14, label %7

7:                                                ; preds = %1
  %8 = icmp eq i32 %5, 8
  br i1 %8, label %9, label %13

9:                                                ; preds = %7
  %10 = getelementptr inbounds nuw i8, ptr %3, i64 366
  %11 = load i8, ptr %10, align 2
  %12 = trunc i8 %11 to i1
  br i1 %12, label %14, label %13

13:                                               ; preds = %9, %7
  br label %14

14:                                               ; preds = %1, %9, %13
  %.0 = phi i32 [ 1024, %13 ], [ 2, %9 ], [ 2, %1 ]
  ret i32 %.0
}